target datalayout = "e-m:e-p270:32:32-p271:32:32-p272:64:64-i64:64-i128:128-f80:128-n8:16:32:64-S128"
target triple = "x86_64-pc-linux-gnu"

%struct.ZSTDv07_customMem = type { ptr, ptr, ptr }
%struct.ZSTDv07_DCtx_s = type { [513 x i32], [257 x i32], [513 x i32], [4097 x i32], ptr, ptr, ptr, ptr, i64, [3 x i32], %struct.ZSTDv07_frameParams, i32, i32, i32, i32, %struct.XXH64_state_s, i64, i32, ptr, %struct.ZSTDv07_customMem, i64, [131080 x i8], [18 x i8] }
%struct.ZSTDv07_frameParams = type { i64, i32, i32, i32 }
%struct.XXH64_state_s = type { i64, [4 x i64], [4 x i64], i32, i32, i64 }
%struct.ZBUFFv07_DCtx_s = type { ptr, %struct.ZSTDv07_frameParams, i32, ptr, i64, i64, ptr, i64, i64, i64, i64, [18 x i8], i64, %struct.ZSTDv07_customMem }

@repStartValue = internal constant [3 x i32] [i32 1, i32 4, i32 8], align 4
@defaultCustomMem = internal constant %struct.ZSTDv07_customMem { ptr @ZSTDv07_defaultAllocFunction, ptr @ZSTDv07_defaultFreeFunction, ptr null }, align 8

; Function Attrs: nounwind uwtable
define i64 @ZSTDv07_freeDCtx(ptr noundef %0) #0 {
  %2 = alloca i64, align 8
  %3 = alloca ptr, align 8
  store ptr %0, ptr %3, align 8, !tbaa !67
  %4 = load ptr, ptr %3, align 8, !tbaa !67
  %5 = icmp eq ptr %4, null
  br i1 %5, label %6, label %7

6:                                                ; preds = %1
  store i64 0, ptr %2, align 8
  br label %17

7:                                                ; preds = %1
  %8 = load ptr, ptr %3, align 8, !tbaa !67
  %9 = getelementptr inbounds nuw %struct.ZSTDv07_DCtx_s, ptr %8, i32 0, i32 19
  %10 = getelementptr inbounds nuw %struct.ZSTDv07_customMem, ptr %9, i32 0, i32 1
  %11 = load ptr, ptr %10, align 8, !tbaa !88
  %12 = load ptr, ptr %3, align 8, !tbaa !67
  %13 = getelementptr inbounds nuw %struct.ZSTDv07_DCtx_s, ptr %12, i32 0, i32 19
  %14 = getelementptr inbounds nuw %struct.ZSTDv07_customMem, ptr %13, i32 0, i32 2
  %15 = load ptr, ptr %14, align 8, !tbaa !89
  %16 = load ptr, ptr %3, align 8, !tbaa !67
  call void %11(ptr noundef %15, ptr noundef %16)
  store i64 0, ptr %2, align 8
  br label %17

17:                                               ; preds = %7, %6
  %18 = load i64, ptr %2, align 8
  ret i64 %18
}

; Function Attrs: nounwind uwtable
define i64 @ZSTDv07_decompressBegin(ptr noundef %0) #0 {
  %2 = alloca ptr, align 8
  %3 = alloca i32, align 4
  store ptr %0, ptr %2, align 8, !tbaa !67
  %4 = load ptr, ptr %2, align 8, !tbaa !67
  %5 = getelementptr inbounds nuw %struct.ZSTDv07_DCtx_s, ptr %4, i32 0, i32 8
  store i64 5, ptr %5, align 8, !tbaa !69
  %6 = load ptr, ptr %2, align 8, !tbaa !67
  %7 = getelementptr inbounds nuw %struct.ZSTDv07_DCtx_s, ptr %6, i32 0, i32 12
  store i32 0, ptr %7, align 4, !tbaa !75
  %8 = load ptr, ptr %2, align 8, !tbaa !67
  %9 = getelementptr inbounds nuw %struct.ZSTDv07_DCtx_s, ptr %8, i32 0, i32 4
  store ptr null, ptr %9, align 8, !tbaa !76
  %10 = load ptr, ptr %2, align 8, !tbaa !67
  %11 = getelementptr inbounds nuw %struct.ZSTDv07_DCtx_s, ptr %10, i32 0, i32 5
  store ptr null, ptr %11, align 8, !tbaa !77
  %12 = load ptr, ptr %2, align 8, !tbaa !67
  %13 = getelementptr inbounds nuw %struct.ZSTDv07_DCtx_s, ptr %12, i32 0, i32 6
  store ptr null, ptr %13, align 8, !tbaa !78
  %14 = load ptr, ptr %2, align 8, !tbaa !67
  %15 = getelementptr inbounds nuw %struct.ZSTDv07_DCtx_s, ptr %14, i32 0, i32 7
  store ptr null, ptr %15, align 8, !tbaa !79
  %16 = load ptr, ptr %2, align 8, !tbaa !67
  %17 = getelementptr inbounds nuw %struct.ZSTDv07_DCtx_s, ptr %16, i32 0, i32 3
  %18 = getelementptr inbounds [4097 x i32], ptr %17, i64 0, i64 0
  store i32 201326604, ptr %18, align 4, !tbaa !15
  %19 = load ptr, ptr %2, align 8, !tbaa !67
  %20 = getelementptr inbounds nuw %struct.ZSTDv07_DCtx_s, ptr %19, i32 0, i32 14
  store i32 0, ptr %20, align 4, !tbaa !80
  %21 = load ptr, ptr %2, align 8, !tbaa !67
  %22 = getelementptr inbounds nuw %struct.ZSTDv07_DCtx_s, ptr %21, i32 0, i32 13
  store i32 0, ptr %22, align 8, !tbaa !81
  %23 = load ptr, ptr %2, align 8, !tbaa !67
  %24 = getelementptr inbounds nuw %struct.ZSTDv07_DCtx_s, ptr %23, i32 0, i32 17
  store i32 0, ptr %24, align 8, !tbaa !82
  call void @llvm.lifetime.start.p0(i64 4, ptr %3) #11
  store i32 0, ptr %3, align 4, !tbaa !15
  br label %25

25:                                               ; preds = %38, %1
  %26 = load i32, ptr %3, align 4, !tbaa !15
  %27 = icmp slt i32 %26, 3
  br i1 %27, label %28, label %41

28:                                               ; preds = %25
  %29 = load i32, ptr %3, align 4, !tbaa !15
  %30 = sext i32 %29 to i64
  %31 = getelementptr inbounds [3 x i32], ptr @repStartValue, i64 0, i64 %30
  %32 = load i32, ptr %31, align 4, !tbaa !15
  %33 = load ptr, ptr %2, align 8, !tbaa !67
  %34 = getelementptr inbounds nuw %struct.ZSTDv07_DCtx_s, ptr %33, i32 0, i32 9
  %35 = load i32, ptr %3, align 4, !tbaa !15
  %36 = sext i32 %35 to i64
  %37 = getelementptr inbounds [3 x i32], ptr %34, i64 0, i64 %36
  store i32 %32, ptr %37, align 4, !tbaa !15
  br label %38

38:                                               ; preds = %28
  %39 = load i32, ptr %3, align 4, !tbaa !15
  %40 = add nsw i32 %39, 1
  store i32 %40, ptr %3, align 4, !tbaa !15
  br label %25, !llvm.loop !83

41:                                               ; preds = %25
  call void @llvm.lifetime.end.p0(i64 4, ptr %3) #11
  ret i64 0
}

; Function Attrs: nounwind uwtable
define i64 @ZBUFFv07_freeDCtx(ptr noundef %0) #0 {
  %2 = alloca i64, align 8
  %3 = alloca ptr, align 8
  store ptr %0, ptr %3, align 8, !tbaa !109
  %4 = load ptr, ptr %3, align 8, !tbaa !109
  %5 = icmp eq ptr %4, null
  br i1 %5, label %6, label %7

6:                                                ; preds = %1
  store i64 0, ptr %2, align 8
  br label %55

7:                                                ; preds = %1
  %8 = load ptr, ptr %3, align 8, !tbaa !109
  %9 = getelementptr inbounds nuw %struct.ZBUFFv07_DCtx_s, ptr %8, i32 0, i32 0
  %10 = load ptr, ptr %9, align 8, !tbaa !111
  %11 = call i64 @ZSTDv07_freeDCtx(ptr noundef %10)
  %12 = load ptr, ptr %3, align 8, !tbaa !109
  %13 = getelementptr inbounds nuw %struct.ZBUFFv07_DCtx_s, ptr %12, i32 0, i32 3
  %14 = load ptr, ptr %13, align 8, !tbaa !114
  %15 = icmp ne ptr %14, null
  br i1 %15, label %16, label %28

16:                                               ; preds = %7
  %17 = load ptr, ptr %3, align 8, !tbaa !109
  %18 = getelementptr inbounds nuw %struct.ZBUFFv07_DCtx_s, ptr %17, i32 0, i32 13
  %19 = getelementptr inbounds nuw %struct.ZSTDv07_customMem, ptr %18, i32 0, i32 1
  %20 = load ptr, ptr %19, align 8, !tbaa !115
  %21 = load ptr, ptr %3, align 8, !tbaa !109
  %22 = getelementptr inbounds nuw %struct.ZBUFFv07_DCtx_s, ptr %21, i32 0, i32 13
  %23 = getelementptr inbounds nuw %struct.ZSTDv07_customMem, ptr %22, i32 0, i32 2
  %24 = load ptr, ptr %23, align 8, !tbaa !116
  %25 = load ptr, ptr %3, align 8, !tbaa !109
  %26 = getelementptr inbounds nuw %struct.ZBUFFv07_DCtx_s, ptr %25, i32 0, i32 3
  %27 = load ptr, ptr %26, align 8, !tbaa !114
  call void %20(ptr noundef %24, ptr noundef %27)
  br label %28

28:                                               ; preds = %16, %7
  %29 = load ptr, ptr %3, align 8, !tbaa !109
  %30 = getelementptr inbounds nuw %struct.ZBUFFv07_DCtx_s, ptr %29, i32 0, i32 6
  %31 = load ptr, ptr %30, align 8, !tbaa !117
  %32 = icmp ne ptr %31, null
  br i1 %32, label %33, label %45

33:                                               ; preds = %28
  %34 = load ptr, ptr %3, align 8, !tbaa !109
  %35 = getelementptr inbounds nuw %struct.ZBUFFv07_DCtx_s, ptr %34, i32 0, i32 13
  %36 = getelementptr inbounds nuw %struct.ZSTDv07_customMem, ptr %35, i32 0, i32 1
  %37 = load ptr, ptr %36, align 8, !tbaa !115
  %38 = load ptr, ptr %3, align 8, !tbaa !109
  %39 = getelementptr inbounds nuw %struct.ZBUFFv07_DCtx_s, ptr %38, i32 0, i32 13
  %40 = getelementptr inbounds nuw %struct.ZSTDv07_customMem, ptr %39, i32 0, i32 2
  %41 = load ptr, ptr %40, align 8, !tbaa !116
  %42 = load ptr, ptr %3, align 8, !tbaa !109
  %43 = getelementptr inbounds nuw %struct.ZBUFFv07_DCtx_s, ptr %42, i32 0, i32 6
  %44 = load ptr, ptr %43, align 8, !tbaa !117
  call void %37(ptr noundef %41, ptr noundef %44)
  br label %45

45:                                               ; preds = %33, %28
  %46 = load ptr, ptr %3, align 8, !tbaa !109
  %47 = getelementptr inbounds nuw %struct.ZBUFFv07_DCtx_s, ptr %46, i32 0, i32 13
  %48 = getelementptr inbounds nuw %struct.ZSTDv07_customMem, ptr %47, i32 0, i32 1
  %49 = load ptr, ptr %48, align 8, !tbaa !115
  %50 = load ptr, ptr %3, align 8, !tbaa !109
  %51 = getelementptr inbounds nuw %struct.ZBUFFv07_DCtx_s, ptr %50, i32 0, i32 13
  %52 = getelementptr inbounds nuw %struct.ZSTDv07_customMem, ptr %51, i32 0, i32 2
  %53 = load ptr, ptr %52, align 8, !tbaa !116
  %54 = load ptr, ptr %3, align 8, !tbaa !109
  call void %49(ptr noundef %53, ptr noundef %54)
  store i64 0, ptr %2, align 8
  br label %55

55:                                               ; preds = %45, %6
  %56 = load i64, ptr %2, align 8
  ret i64 %56
}

; Function Attrs: nounwind uwtable
define ptr @ZSTDv07_createDCtx_advanced(ptr noundef byval(%struct.ZSTDv07_customMem) align 8 %0) #0 {
  %2 = alloca ptr, align 8
  %3 = alloca ptr, align 8
  %4 = alloca i32, align 4
  call void @llvm.lifetime.start.p0(i64 8, ptr %3) #11
  %5 = getelementptr inbounds nuw %struct.ZSTDv07_customMem, ptr %0, i32 0, i32 0
  %6 = load ptr, ptr %5, align 8, !tbaa !84
  %7 = icmp ne ptr %6, null
  br i1 %7, label %13, label %8

8:                                                ; preds = %1
  %9 = getelementptr inbounds nuw %struct.ZSTDv07_customMem, ptr %0, i32 0, i32 1
  %10 = load ptr, ptr %9, align 8, !tbaa !85
  %11 = icmp ne ptr %10, null
  br i1 %11, label %13, label %12

12:                                               ; preds = %8
  call void @llvm.memcpy.p0.p0.i64(ptr align 8 %0, ptr align 8 @defaultCustomMem, i64 24, i1 false), !tbaa.struct !86
  br label %13

13:                                               ; preds = %12, %8, %1
  %14 = getelementptr inbounds nuw %struct.ZSTDv07_customMem, ptr %0, i32 0, i32 0
  %15 = load ptr, ptr %14, align 8, !tbaa !84
  %16 = icmp ne ptr %15, null
  br i1 %16, label %17, label %21

17:                                               ; preds = %13
  %18 = getelementptr inbounds nuw %struct.ZSTDv07_customMem, ptr %0, i32 0, i32 1
  %19 = load ptr, ptr %18, align 8, !tbaa !85
  %20 = icmp ne ptr %19, null
  br i1 %20, label %22, label %21

21:                                               ; preds = %17, %13
  store ptr null, ptr %2, align 8
  store i32 1, ptr %4, align 4
  br label %37

22:                                               ; preds = %17
  %23 = getelementptr inbounds nuw %struct.ZSTDv07_customMem, ptr %0, i32 0, i32 0
  %24 = load ptr, ptr %23, align 8, !tbaa !84
  %25 = getelementptr inbounds nuw %struct.ZSTDv07_customMem, ptr %0, i32 0, i32 2
  %26 = load ptr, ptr %25, align 8, !tbaa !87
  %27 = call ptr %24(ptr noundef %26, i64 noundef 152864)
  store ptr %27, ptr %3, align 8, !tbaa !67
  %28 = load ptr, ptr %3, align 8, !tbaa !67
  %29 = icmp ne ptr %28, null
  br i1 %29, label %31, label %30

30:                                               ; preds = %22
  store ptr null, ptr %2, align 8
  store i32 1, ptr %4, align 4
  br label %37

31:                                               ; preds = %22
  %32 = load ptr, ptr %3, align 8, !tbaa !67
  %33 = getelementptr inbounds nuw %struct.ZSTDv07_DCtx_s, ptr %32, i32 0, i32 19
  call void @llvm.memcpy.p0.p0.i64(ptr align 8 %33, ptr align 8 %0, i64 24, i1 false)
  %34 = load ptr, ptr %3, align 8, !tbaa !67
  %35 = call i64 @ZSTDv07_decompressBegin(ptr noundef %34)
  %36 = load ptr, ptr %3, align 8, !tbaa !67
  store ptr %36, ptr %2, align 8
  store i32 1, ptr %4, align 4
  br label %37

37:                                               ; preds = %31, %30, %21
  call void @llvm.lifetime.end.p0(i64 8, ptr %3) #11
  %38 = load ptr, ptr %2, align 8
  ret ptr %38
}

; Function Attrs: nounwind uwtable
define ptr @ZBUFFv07_createDCtx_advanced(ptr noundef byval(%struct.ZSTDv07_customMem) align 8 %0) #0 {
  %2 = alloca ptr, align 8
  %3 = alloca ptr, align 8
  %4 = alloca i32, align 4
  call void @llvm.lifetime.start.p0(i64 8, ptr %3) #11
  %5 = getelementptr inbounds nuw %struct.ZSTDv07_customMem, ptr %0, i32 0, i32 0
  %6 = load ptr, ptr %5, align 8, !tbaa !84
  %7 = icmp ne ptr %6, null
  br i1 %7, label %13, label %8

8:                                                ; preds = %1
  %9 = getelementptr inbounds nuw %struct.ZSTDv07_customMem, ptr %0, i32 0, i32 1
  %10 = load ptr, ptr %9, align 8, !tbaa !85
  %11 = icmp ne ptr %10, null
  br i1 %11, label %13, label %12

12:                                               ; preds = %8
  call void @llvm.memcpy.p0.p0.i64(ptr align 8 %0, ptr align 8 @defaultCustomMem, i64 24, i1 false), !tbaa.struct !86
  br label %13

13:                                               ; preds = %12, %8, %1
  %14 = getelementptr inbounds nuw %struct.ZSTDv07_customMem, ptr %0, i32 0, i32 0
  %15 = load ptr, ptr %14, align 8, !tbaa !84
  %16 = icmp ne ptr %15, null
  br i1 %16, label %17, label %21

17:                                               ; preds = %13
  %18 = getelementptr inbounds nuw %struct.ZSTDv07_customMem, ptr %0, i32 0, i32 1
  %19 = load ptr, ptr %18, align 8, !tbaa !85
  %20 = icmp ne ptr %19, null
  br i1 %20, label %22, label %21

21:                                               ; preds = %17, %13
  store ptr null, ptr %2, align 8
  store i32 1, ptr %4, align 4
  br label %49

22:                                               ; preds = %17
  %23 = getelementptr inbounds nuw %struct.ZSTDv07_customMem, ptr %0, i32 0, i32 0
  %24 = load ptr, ptr %23, align 8, !tbaa !84
  %25 = getelementptr inbounds nuw %struct.ZSTDv07_customMem, ptr %0, i32 0, i32 2
  %26 = load ptr, ptr %25, align 8, !tbaa !87
  %27 = call ptr %24(ptr noundef %26, i64 noundef 160)
  store ptr %27, ptr %3, align 8, !tbaa !109
  %28 = load ptr, ptr %3, align 8, !tbaa !109
  %29 = icmp eq ptr %28, null
  br i1 %29, label %30, label %31

30:                                               ; preds = %22
  store ptr null, ptr %2, align 8
  store i32 1, ptr %4, align 4
  br label %49

31:                                               ; preds = %22
  %32 = load ptr, ptr %3, align 8, !tbaa !109
  call void @llvm.memset.p0.i64(ptr align 8 %32, i8 0, i64 160, i1 false)
  %33 = load ptr, ptr %3, align 8, !tbaa !109
  %34 = getelementptr inbounds nuw %struct.ZBUFFv07_DCtx_s, ptr %33, i32 0, i32 13
  call void @llvm.memcpy.p0.p0.i64(ptr align 8 %34, ptr align 8 %0, i64 24, i1 false)
  %35 = call ptr @ZSTDv07_createDCtx_advanced(ptr noundef byval(%struct.ZSTDv07_customMem) align 8 %0)
  %36 = load ptr, ptr %3, align 8, !tbaa !109
  %37 = getelementptr inbounds nuw %struct.ZBUFFv07_DCtx_s, ptr %36, i32 0, i32 0
  store ptr %35, ptr %37, align 8, !tbaa !111
  %38 = load ptr, ptr %3, align 8, !tbaa !109
  %39 = getelementptr inbounds nuw %struct.ZBUFFv07_DCtx_s, ptr %38, i32 0, i32 0
  %40 = load ptr, ptr %39, align 8, !tbaa !111
  %41 = icmp eq ptr %40, null
  br i1 %41, label %42, label %45

42:                                               ; preds = %31
  %43 = load ptr, ptr %3, align 8, !tbaa !109
  %44 = call i64 @ZBUFFv07_freeDCtx(ptr noundef %43)
  store ptr null, ptr %2, align 8
  store i32 1, ptr %4, align 4
  br label %49

45:                                               ; preds = %31
  %46 = load ptr, ptr %3, align 8, !tbaa !109
  %47 = getelementptr inbounds nuw %struct.ZBUFFv07_DCtx_s, ptr %46, i32 0, i32 2
  store i32 0, ptr %47, align 8, !tbaa !113
  %48 = load ptr, ptr %3, align 8, !tbaa !109
  store ptr %48, ptr %2, align 8
  store i32 1, ptr %4, align 4
  br label %49

49:                                               ; preds = %45, %42, %30, %21
  call void @llvm.lifetime.end.p0(i64 8, ptr %3) #11
  %50 = load ptr, ptr %2, align 8
  ret ptr %50
}