; Function Attrs: nounwind uwtable
define ptr @ZBUFFv07_createDCtx_advanced(ptr noundef byval(%struct.ZSTDv07_customMem) align 8 captures(none) %0) local_unnamed_addr #1 {
  %2 = load ptr, ptr %0, align 8, !tbaa !72
  %3 = icmp ne ptr %2, null
  %4 = getelementptr inbounds nuw i8, ptr %0, i64 8
  %5 = load ptr, ptr %4, align 8
  %6 = icmp ne ptr %5, null
  %or.cond = select i1 %3, i1 true, i1 %6
  br i1 %or.cond, label %8, label %7

7:                                                ; preds = %1
  call void @llvm.memcpy.p0.p0.i64(ptr noundef nonnull align 8 dereferenceable(24) %0, ptr noundef nonnull align 8 dereferenceable(24) @defaultCustomMem, i64 24, i1 false), !tbaa.struct !73
  br label %8

8:                                                ; preds = %7, %1
  %9 = phi ptr [ @ZSTDv07_defaultFreeFunction, %7 ], [ %5, %1 ]
  %10 = phi ptr [ @ZSTDv07_defaultAllocFunction, %7 ], [ %2, %1 ]
  %11 = icmp ne ptr %10, null
  %12 = icmp ne ptr %9, null
  %or.cond5 = select i1 %11, i1 %12, i1 false
  br i1 %or.cond5, label %13, label %51

13:                                               ; preds = %8
  %14 = getelementptr inbounds nuw i8, ptr %0, i64 16
  %15 = load ptr, ptr %14, align 8, !tbaa !74
  %16 = tail call ptr %10(ptr noundef %15, i64 noundef 160) #26
  %17 = icmp eq ptr %16, null
  br i1 %17, label %51, label %18

18:                                               ; preds = %13
  tail call void @llvm.memset.p0.i64(ptr noundef nonnull align 8 dereferenceable(160) %16, i8 0, i64 136, i1 false)
  %19 = getelementptr inbounds nuw i8, ptr %16, i64 136
  call void @llvm.memcpy.p0.p0.i64(ptr noundef nonnull align 8 dereferenceable(24) %19, ptr noundef nonnull align 8 dereferenceable(24) %0, i64 24, i1 false)
  %20 = tail call ptr %10(ptr noundef %15, i64 noundef 152864) #26
  %.not.i = icmp eq ptr %20, null
  br i1 %.not.i, label %ZSTDv07_freeDCtx.exit.i, label %40

ZSTDv07_freeDCtx.exit.i:                          ; preds = %18
  store ptr null, ptr %16, align 8, !tbaa !109
  %21 = getelementptr inbounds nuw i8, ptr %16, i64 40
  %22 = load ptr, ptr %21, align 8, !tbaa !112
  %.not.i16 = icmp eq ptr %22, null
  br i1 %.not.i16, label %28, label %23

23:                                               ; preds = %ZSTDv07_freeDCtx.exit.i
  %24 = getelementptr inbounds nuw i8, ptr %16, i64 144
  %25 = load ptr, ptr %24, align 8, !tbaa !113
  %26 = getelementptr inbounds nuw i8, ptr %16, i64 152
  %27 = load ptr, ptr %26, align 8, !tbaa !114
  tail call void %25(ptr noundef %27, ptr noundef nonnull %22) #26
  br label %28

28:                                               ; preds = %23, %ZSTDv07_freeDCtx.exit.i
  %29 = getelementptr inbounds nuw i8, ptr %16, i64 64
  %30 = load ptr, ptr %29, align 8, !tbaa !115
  %.not15.i = icmp eq ptr %30, null
  br i1 %.not15.i, label %ZBUFFv07_freeDCtx.exit, label %31

31:                                               ; preds = %28
  %32 = getelementptr inbounds nuw i8, ptr %16, i64 144
  %33 = load ptr, ptr %32, align 8, !tbaa !113
  %34 = getelementptr inbounds nuw i8, ptr %16, i64 152
  %35 = load ptr, ptr %34, align 8, !tbaa !114
  tail call void %33(ptr noundef %35, ptr noundef nonnull %30) #26
  br label %ZBUFFv07_freeDCtx.exit

ZBUFFv07_freeDCtx.exit:                           ; preds = %28, %31
  %36 = getelementptr inbounds nuw i8, ptr %16, i64 144
  %37 = load ptr, ptr %36, align 8, !tbaa !113
  %38 = getelementptr inbounds nuw i8, ptr %16, i64 152
  %39 = load ptr, ptr %38, align 8, !tbaa !114
  tail call void %37(ptr noundef %39, ptr noundef nonnull %16) #26
  br label %51

40:                                               ; preds = %18
  %41 = getelementptr inbounds nuw i8, ptr %20, i64 21728
  store ptr %10, ptr %41, align 8
  %.sroa.6.0..sroa_idx = getelementptr inbounds nuw i8, ptr %20, i64 21736
  store ptr %9, ptr %.sroa.6.0..sroa_idx, align 8
  %.sroa.7.0..sroa_idx = getelementptr inbounds nuw i8, ptr %20, i64 21744
  store ptr %15, ptr %.sroa.7.0..sroa_idx, align 8
  %42 = getelementptr inbounds nuw i8, ptr %20, i64 21552
  store i64 5, ptr %42, align 8, !tbaa !62
  %43 = getelementptr inbounds nuw i8, ptr %20, i64 21604
  store i32 0, ptr %43, align 4, !tbaa !68
  %44 = getelementptr inbounds nuw i8, ptr %20, i64 21520
  %45 = getelementptr inbounds nuw i8, ptr %20, i64 5132
  tail call void @llvm.memset.p0.i64(ptr noundef nonnull align 8 dereferenceable(32) %44, i8 0, i64 32, i1 false)
  store i32 201326604, ptr %45, align 4, !tbaa !3
  %46 = getelementptr inbounds nuw i8, ptr %20, i64 21612
  store i32 0, ptr %46, align 4, !tbaa !69
  %47 = getelementptr inbounds nuw i8, ptr %20, i64 21608
  store i32 0, ptr %47, align 8, !tbaa !70
  %48 = getelementptr inbounds nuw i8, ptr %20, i64 21712
  store i32 0, ptr %48, align 8, !tbaa !71
  %49 = getelementptr inbounds nuw i8, ptr %20, i64 21560
  tail call void @llvm.memcpy.p0.p0.i64(ptr noundef nonnull align 4 dereferenceable(12) %49, ptr noundef nonnull align 4 dereferenceable(12) @repStartValue, i64 12, i1 false), !tbaa !3
  store ptr %20, ptr %16, align 8, !tbaa !109
  %50 = getelementptr inbounds nuw i8, ptr %16, i64 32
  store i32 0, ptr %50, align 8, !tbaa !111
  br label %51

51:                                               ; preds = %13, %8, %40, %ZBUFFv07_freeDCtx.exit
  %.0 = phi ptr [ null, %ZBUFFv07_freeDCtx.exit ], [ %16, %40 ], [ null, %8 ], [ null, %13 ]
  ret ptr %.0
}